; ModuleID = '28/1344.c'
source_filename = "28/1344.c"
target datalayout = "e-m:e-p270:32:32-p271:32:32-p272:64:64-i64:64-f80:128-n8:16:32:64-S128"
target triple = "x86_64-pc-linux-gnu"

@.str = private unnamed_addr constant [4 x i8] c"%d,\00", align 1
@.str.1 = private unnamed_addr constant [3 x i8] c"%d\00", align 1

; Function Attrs: noinline nounwind uwtable
define dso_local void @main() #0 {
  %1 = alloca [100000 x i8], align 16
  %2 = alloca i32, align 4
  %3 = alloca i32, align 4
  %4 = alloca i32, align 4
  store i32 0, i32* %3, align 4
  store i32 0, i32* %4, align 4
  %5 = getelementptr inbounds [100000 x i8], [100000 x i8]* %1, i64 0, i64 0
  %6 = call i32 (i8*, ...) bitcast (i32 (...)* @gets to i32 (i8*, ...)*)(i8* %5)
  %7 = getelementptr inbounds [100000 x i8], [100000 x i8]* %1, i64 0, i64 0
  %8 = load i8, i8* %7, align 16
  %9 = sext i8 %8 to i32
  %10 = icmp ne i32 %9, 32
  br i1 %10, label %11, label %12

11:                                               ; preds = %0
  store i32 1, i32* %3, align 4
  store i32 1, i32* %4, align 4
  br label %12

12:                                               ; preds = %11, %0
  store i32 1, i32* %2, align 4
  br label %13

13:                                               ; preds = %54, %12
  %14 = load i32, i32* %2, align 4
  %15 = sext i32 %14 to i64
  %16 = getelementptr inbounds [100000 x i8], [100000 x i8]* %1, i64 0, i64 %15
  %17 = load i8, i8* %16, align 1
  %18 = sext i8 %17 to i32
  %19 = icmp ne i32 %18, 0
  br i1 %19, label %20, label %57

20:                                               ; preds = %13
  %21 = load i32, i32* %2, align 4
  %22 = sext i32 %21 to i64
  %23 = getelementptr inbounds [100000 x i8], [100000 x i8]* %1, i64 0, i64 %22
  %24 = load i8, i8* %23, align 1
  %25 = sext i8 %24 to i32
  %26 = icmp eq i32 %25, 32
  br i1 %26, label %27, label %39

27:                                               ; preds = %20
  %28 = load i32, i32* %2, align 4
  %29 = sub nsw i32 %28, 1
  %30 = sext i32 %29 to i64
  %31 = getelementptr inbounds [100000 x i8], [100000 x i8]* %1, i64 0, i64 %30
  %32 = load i8, i8* %31, align 1
  %33 = sext i8 %32 to i32
  %34 = icmp ne i32 %33, 32
  br i1 %34, label %35, label %38

35:                                               ; preds = %27
  %36 = load i32, i32* %3, align 4
  %37 = call i32 (i8*, ...) @printf(i8* getelementptr inbounds ([4 x i8], [4 x i8]* @.str, i64 0, i64 0), i32 %36)
  br label %38

38:                                               ; preds = %35, %27
  store i32 0, i32* %4, align 4
  store i32 0, i32* %3, align 4
  br label %53

39:                                               ; preds = %20
  %40 = load i32, i32* %4, align 4
  %41 = icmp eq i32 %40, 0
  br i1 %41, label %42, label %45

42:                                               ; preds = %39
  store i32 1, i32* %4, align 4
  %43 = load i32, i32* %3, align 4
  %44 = add nsw i32 %43, 1
  store i32 %44, i32* %3, align 4
  br label %52

45:                                               ; preds = %39
  %46 = load i32, i32* %4, align 4
  %47 = icmp eq i32 %46, 1
  br i1 %47, label %48, label %51

48:                                               ; preds = %45
  %49 = load i32, i32* %3, align 4
  %50 = add nsw i32 %49, 1
  store i32 %50, i32* %3, align 4
  br label %51

51:                                               ; preds = %48, %45
  br label %52

52:                                               ; preds = %51, %42
  br label %53

53:                                               ; preds = %52, %38
  br label %54

54:                                               ; preds = %53
  %55 = load i32, i32* %2, align 4
  %56 = add nsw i32 %55, 1
  store i32 %56, i32* %2, align 4
  br label %13

57:                                               ; preds = %13
  %58 = load i32, i32* %3, align 4
  %59 = call i32 (i8*, ...) @printf(i8* getelementptr inbounds ([3 x i8], [3 x i8]* @.str.1, i64 0, i64 0), i32 %58)
  ret void
}

declare dso_local i32 @gets(...) #1

declare dso_local i32 @printf(i8*, ...) #1


!llvm.module.flags = !{!0}
!llvm.ident = !{!1}

!0 = !{i32 1, !"wchar_size", i32 4}
!1 = !{!"clang version 10.0.0-4ubuntu1 "}
