; ModuleID = 'source-C-CXX/27/1344.c'
source_filename = "source-C-CXX/27/1344.c"
target datalayout = "e-m:e-p270:32:32-p271:32:32-p272:64:64-i64:64-f80:128-n8:16:32:64-S128"
target triple = "x86_64-pc-linux-gnu"

@.str = private unnamed_addr constant [4 x i8] c"%d,\00", align 1
@.str.1 = private unnamed_addr constant [3 x i8] c"%d\00", align 1

; Function Attrs: nounwind sspstrong uwtable
define dso_local void @main() local_unnamed_addr #0 {
  %1 = alloca [100000 x i8], align 16
  %2 = getelementptr inbounds [100000 x i8], [100000 x i8]* %1, i64 0, i64 0
  call void @llvm.lifetime.start.p0i8(i64 100000, i8* nonnull %2) #4
  %3 = call i32 (i8*, ...) bitcast (i32 (...)* @gets to i32 (i8*, ...)*)(i8* nonnull %2) #4
  %4 = load i8, i8* %2, align 16, !tbaa !5
  %5 = icmp ne i8 %4, 32
  %6 = zext i1 %5 to i32
  br label %7

7:                                                ; preds = %21, %0
  %8 = phi i64 [ %23, %21 ], [ 1, %0 ]
  %9 = phi i32 [ %22, %21 ], [ %6, %0 ]
  %10 = getelementptr inbounds [100000 x i8], [100000 x i8]* %1, i64 0, i64 %8
  %11 = load i8, i8* %10, align 1, !tbaa !5
  switch i8 %11, label %19 [
    i8 0, label %24
    i8 32, label %12
  ]

12:                                               ; preds = %7
  %13 = add nsw i64 %8, -1
  %14 = getelementptr inbounds [100000 x i8], [100000 x i8]* %1, i64 0, i64 %13
  %15 = load i8, i8* %14, align 1, !tbaa !5
  %16 = icmp eq i8 %15, 32
  br i1 %16, label %21, label %17

17:                                               ; preds = %12
  %18 = call i32 (i8*, ...) @printf(i8* nonnull dereferenceable(1) getelementptr inbounds ([4 x i8], [4 x i8]* @.str, i64 0, i64 0), i32 %9)
  br label %21

19:                                               ; preds = %7
  %20 = add nsw i32 %9, 1
  br label %21

21:                                               ; preds = %19, %12, %17
  %22 = phi i32 [ 0, %17 ], [ 0, %12 ], [ %20, %19 ]
  %23 = add nuw i64 %8, 1
  br label %7, !llvm.loop !8

24:                                               ; preds = %7
  %25 = call i32 (i8*, ...) @printf(i8* nonnull dereferenceable(1) getelementptr inbounds ([3 x i8], [3 x i8]* @.str.1, i64 0, i64 0), i32 %9)
  call void @llvm.lifetime.end.p0i8(i64 100000, i8* nonnull %2) #4
  ret void
}

; Function Attrs: argmemonly mustprogress nofree nosync nounwind willreturn
declare void @llvm.lifetime.start.p0i8(i64 immarg, i8* nocapture) #1

declare i32 @gets(...) local_unnamed_addr #2

; Function Attrs: nofree nounwind
declare noundef i32 @printf(i8* nocapture noundef readonly, ...) local_unnamed_addr #3

; Function Attrs: argmemonly mustprogress nofree nosync nounwind willreturn
declare void @llvm.lifetime.end.p0i8(i64 immarg, i8* nocapture) #1


!llvm.module.flags = !{!0, !1, !2, !3}
!llvm.ident = !{!4}

!0 = !{i32 1, !"wchar_size", i32 4}
!1 = !{i32 7, !"PIC Level", i32 2}
!2 = !{i32 7, !"PIE Level", i32 2}
!3 = !{i32 7, !"uwtable", i32 1}
!4 = !{!"clang version 13.0.0"}
!5 = !{!6, !6, i64 0}
!6 = !{!"omnipotent char", !7, i64 0}
!7 = !{!"Simple C/C++ TBAA"}
!8 = distinct !{!8, !9}
!9 = !{!"llvm.loop.mustprogress"}
